target datalayout = "e-m:e-p270:32:32-p271:32:32-p272:64:64-i64:64-i128:128-f80:128-n8:16:32:64-S128"
target triple = "x86_64-pc-linux-gnu"

%struct.dirent = type { i64, i64, i16, i8, [256 x i8] }
%"class.SystemProcessInterface::SystemProcesses::ProcessIterator" = type <{ ptr, ptr, i8, [4096 x i8], [4096 x i8], [7 x i8] }>

@.str.5 = private unnamed_addr constant [2 x i8] c"r\00", align 1
@.str.6 = private unnamed_addr constant [17 x i8] c"/proc/%s/cmdline\00", align 1

; Function Attrs: mustprogress nounwind uwtable
define hidden noundef ptr @_ZN22SystemProcessInterface15SystemProcesses15ProcessIterator11get_cmdlineEv(ptr noundef nonnull align 8 dereferenceable(8209) %0) #1 align 2 {
  %2 = alloca ptr, align 8
  %3 = alloca ptr, align 8
  %4 = alloca [4096 x i8], align 16
  %5 = alloca ptr, align 8
  %6 = alloca i64, align 8
  %7 = alloca i8, align 1
  %8 = alloca i64, align 8
  store ptr %0, ptr %2, align 8
  %9 = load ptr, ptr %2, align 8
  store ptr null, ptr %5, align 8
  %10 = getelementptr inbounds [4096 x i8], ptr %4, i64 0, i64 0
  %11 = getelementptr inbounds %"class.SystemProcessInterface::SystemProcesses::ProcessIterator", ptr %9, i32 0, i32 1
  %12 = load ptr, ptr %11, align 8
  %13 = getelementptr inbounds %struct.dirent, ptr %12, i32 0, i32 4
  %14 = getelementptr inbounds [256 x i8], ptr %13, i64 0, i64 0
  %15 = call i32 (ptr, i64, ptr, ...) @jio_snprintf(ptr noundef %10, i64 noundef 4096, ptr noundef @.str.6, ptr noundef %14)
  %16 = getelementptr inbounds [4096 x i8], ptr %4, i64 0, i64 4095
  store i8 0, ptr %16, align 1
  %17 = getelementptr inbounds [4096 x i8], ptr %4, i64 0, i64 0
  %18 = call noundef ptr @_ZN2os5fopenEPKcS1_(ptr noundef %17, ptr noundef @.str.5)
  store ptr %18, ptr %3, align 8
  %19 = icmp ne ptr %18, null
  br i1 %19, label %20, label %77

20:                                               ; preds = %1
  store i64 0, ptr %6, align 8
  br label %21

21:                                               ; preds = %25, %20
  %22 = load ptr, ptr %3, align 8
  %23 = call i64 @fread(ptr noundef %7, i64 noundef 1, i64 noundef 1, ptr noundef %22)
  %24 = icmp eq i64 %23, 1
  br i1 %24, label %25, label %28

25:                                               ; preds = %21
  %26 = load i64, ptr %6, align 8
  %27 = add i64 %26, 1
  store i64 %27, ptr %6, align 8
  br label %21, !llvm.loop !8

28:                                               ; preds = %21
  %29 = load i64, ptr %6, align 8
  %30 = icmp ugt i64 %29, 0
  br i1 %30, label %31, label %74

31:                                               ; preds = %28
  %32 = load i64, ptr %6, align 8
  %33 = add i64 %32, 1
  %34 = mul i64 %33, 1
  %35 = call noundef ptr @_Z12AllocateHeapm8MEMFLAGSN17AllocFailStrategy13AllocFailEnumE(i64 noundef %34, i8 noundef zeroext 9, i32 noundef 0)
  store ptr %35, ptr %5, align 8
  %36 = load ptr, ptr %5, align 8
  %37 = getelementptr inbounds i8, ptr %36, i64 0
  store i8 0, ptr %37, align 1
  %38 = load ptr, ptr %3, align 8
  %39 = call i32 @fseek(ptr noundef %38, i64 noundef 0, i32 noundef 0)
  %40 = icmp eq i32 %39, 0
  br i1 %40, label %41, label %73

41:                                               ; preds = %31
  %42 = load ptr, ptr %5, align 8
  %43 = load i64, ptr %6, align 8
  %44 = load ptr, ptr %3, align 8
  %45 = call i64 @fread(ptr noundef %42, i64 noundef 1, i64 noundef %43, ptr noundef %44)
  %46 = load i64, ptr %6, align 8
  %47 = icmp eq i64 %45, %46
  br i1 %47, label %48, label %72

48:                                               ; preds = %41
  store i64 0, ptr %8, align 8
  br label %49

49:                                               ; preds = %65, %48
  %50 = load i64, ptr %8, align 8
  %51 = load i64, ptr %6, align 8
  %52 = icmp ult i64 %50, %51
  br i1 %52, label %53, label %68

53:                                               ; preds = %49
  %54 = load ptr, ptr %5, align 8
  %55 = load i64, ptr %8, align 8
  %56 = getelementptr inbounds i8, ptr %54, i64 %55
  %57 = load i8, ptr %56, align 1
  %58 = sext i8 %57 to i32
  %59 = icmp eq i32 %58, 0
  br i1 %59, label %60, label %64

60:                                               ; preds = %53
  %61 = load ptr, ptr %5, align 8
  %62 = load i64, ptr %8, align 8
  %63 = getelementptr inbounds i8, ptr %61, i64 %62
  store i8 32, ptr %63, align 1
  br label %64

64:                                               ; preds = %60, %53
  br label %65

65:                                               ; preds = %64
  %66 = load i64, ptr %8, align 8
  %67 = add i64 %66, 1
  store i64 %67, ptr %8, align 8
  br label %49, !llvm.loop !9

68:                                               ; preds = %49
  %69 = load ptr, ptr %5, align 8
  %70 = load i64, ptr %6, align 8
  %71 = getelementptr inbounds i8, ptr %69, i64 %70
  store i8 0, ptr %71, align 1
  br label %72

72:                                               ; preds = %68, %41
  br label %73

73:                                               ; preds = %72, %31
  br label %74

74:                                               ; preds = %73, %28
  %75 = load ptr, ptr %3, align 8
  %76 = call i32 @fclose(ptr noundef %75)
  br label %77

77:                                               ; preds = %74, %1
  %78 = load ptr, ptr %5, align 8
  ret ptr %78
}