; Function Attrs: mustprogress nounwind uwtable
define hidden noundef ptr @_ZN22SystemProcessInterface15SystemProcesses15ProcessIterator11get_cmdlineEv(ptr nocapture noundef nonnull readonly align 8 dereferenceable(8209) %0) local_unnamed_addr #0 align 2 {
  %2 = alloca [4096 x i8], align 16
  %3 = alloca i8, align 1
  %4 = getelementptr inbounds i8, ptr %0, i64 8
  %5 = load ptr, ptr %4, align 8
  %6 = getelementptr inbounds i8, ptr %5, i64 19
  %7 = call i32 (ptr, i64, ptr, ...) @jio_snprintf(ptr noundef nonnull %2, i64 noundef 4096, ptr noundef nonnull @.str.6, ptr noundef nonnull %6) #18
  %8 = getelementptr inbounds i8, ptr %2, i64 4095
  store i8 0, ptr %8, align 1
  %9 = call noundef ptr @_ZN2os5fopenEPKcS1_(ptr noundef nonnull %2, ptr noundef nonnull @.str.5) #18
  %.not = icmp eq ptr %9, null
  br i1 %.not, label %31, label %.preheader25

.preheader25:                                     ; preds = %1, %.preheader25
  %.021 = phi i64 [ %12, %.preheader25 ], [ 0, %1 ]
  %10 = call i64 @fread(ptr noundef nonnull %3, i64 noundef 1, i64 noundef 1, ptr noundef nonnull %9)
  %11 = icmp eq i64 %10, 1
  %12 = add i64 %.021, 1
  br i1 %11, label %.preheader25, label %13, !llvm.loop !8

13:                                               ; preds = %.preheader25
  %.not24 = icmp eq i64 %.021, 0
  br i1 %.not24, label %29, label %14

14:                                               ; preds = %13
  %15 = call noundef ptr @_Z12AllocateHeapm8MEMFLAGSN17AllocFailStrategy13AllocFailEnumE(i64 noundef %12, i8 noundef zeroext 9, i32 noundef 0) #18
  store i8 0, ptr %15, align 1
  %16 = call i32 @fseek(ptr noundef nonnull %9, i64 noundef 0, i32 noundef 0)
  %17 = icmp eq i32 %16, 0
  br i1 %17, label %18, label %29

18:                                               ; preds = %14
  %19 = call i64 @fread(ptr noundef nonnull %15, i64 noundef 1, i64 noundef %.021, ptr noundef nonnull %9)
  %20 = icmp eq i64 %19, %.021
  br i1 %20, label %.preheader, label %29

.preheader:                                       ; preds = %18, %25
  %.026 = phi i64 [ %26, %25 ], [ 0, %18 ]
  %21 = getelementptr inbounds i8, ptr %15, i64 %.026
  %22 = load i8, ptr %21, align 1
  %23 = icmp eq i8 %22, 0
  br i1 %23, label %24, label %25

24:                                               ; preds = %.preheader
  store i8 32, ptr %21, align 1
  br label %25

25:                                               ; preds = %.preheader, %24
  %26 = add nuw i64 %.026, 1
  %exitcond.not = icmp eq i64 %26, %.021
  br i1 %exitcond.not, label %27, label %.preheader, !llvm.loop !9

27:                                               ; preds = %25
  %28 = getelementptr inbounds i8, ptr %15, i64 %.021
  store i8 0, ptr %28, align 1
  br label %29

29:                                               ; preds = %14, %27, %18, %13
  %.022 = phi ptr [ %15, %27 ], [ %15, %18 ], [ %15, %14 ], [ null, %13 ]
  %30 = call i32 @fclose(ptr noundef nonnull %9)
  br label %31

31:                                               ; preds = %29, %1
  %.1 = phi ptr [ %.022, %29 ], [ null, %1 ]
  ret ptr %.1
}